; ModuleID = 'bench/linux/original/last.ll'
source_filename = "bench/linux/original/last.ll"
target datalayout = "e-m:e-p270:32:32-p271:32:32-p272:64:64-i64:64-i128:128-f80:128-n8:16:32:64-S128"
target triple = "x86_64-unknown-linux-gnu"

module asm ".section\09\22.initcall7s.init\22, \22a\22\09\09"
module asm "__initcall__kmod_last__313_29_alsa_sound_last_init7s:\09\09\09"
module asm ".long\09alsa_sound_last_init - .\09"
module asm ".previous\09\09\09\09\09"

@__UNIQUE_ID___addressable_alsa_sound_last_init314 = internal global ptr @alsa_sound_last_init, section ".discard.addressable", align 8
@.str = private unnamed_addr constant [21 x i8] c"\016ALSA device list:\0A\00", align 1
@.str.1 = private unnamed_addr constant [13 x i8] c"\016  #%i: %s\0A\00", align 1
@.str.2 = private unnamed_addr constant [26 x i8] c"\016  No soundcards found.\0A\00", align 1
@llvm.compiler.used = appending global [1 x ptr] [ptr @__UNIQUE_ID___addressable_alsa_sound_last_init314], section "llvm.metadata"

; Function Attrs: cold fn_ret_thunk_extern nounwind null_pointer_is_valid optsize
define internal noundef i32 @alsa_sound_last_init() #0 section ".init.text" align 16 {
  %1 = tail call i32 (ptr, ...) @_printk(ptr noundef nonnull @.str) #3
  br label %2

2:                                                ; preds = %12, %0
  %3 = phi i32 [ 0, %0 ], [ %14, %12 ]
  %4 = phi i32 [ 0, %0 ], [ %13, %12 ]
  %5 = tail call ptr @snd_card_ref(i32 noundef %3) #4
  %6 = icmp eq ptr %5, null
  br i1 %6, label %12, label %7

7:                                                ; preds = %2
  %8 = getelementptr inbounds i8, ptr %5, i64 68
  %9 = tail call i32 (ptr, ...) @_printk(ptr noundef nonnull @.str.1, i32 noundef %3, ptr noundef %8) #3
  %10 = getelementptr inbounds i8, ptr %5, i64 648
  tail call void @put_device(ptr noundef %10) #4
  %11 = add i32 %4, 1
  br label %12

12:                                               ; preds = %7, %2
  %13 = phi i32 [ %11, %7 ], [ %4, %2 ]
  %14 = add nuw nsw i32 %3, 1
  %15 = icmp eq i32 %14, 8
  br i1 %15, label %16, label %2, !llvm.loop !5

16:                                               ; preds = %12
  %17 = icmp eq i32 %13, 0
  br i1 %17, label %18, label %20

18:                                               ; preds = %16
  %19 = tail call i32 (ptr, ...) @_printk(ptr noundef nonnull @.str.2) #3
  br label %20

20:                                               ; preds = %18, %16
  ret i32 0
}

; Function Attrs: cold null_pointer_is_valid
declare dso_local i32 @_printk(ptr noundef, ...) local_unnamed_addr #1

; Function Attrs: null_pointer_is_valid
declare dso_local ptr @snd_card_ref(i32 noundef) local_unnamed_addr #2

; Function Attrs: null_pointer_is_valid
declare dso_local void @put_device(ptr noundef) local_unnamed_addr #2


!llvm.module.flags = !{!0, !1, !2, !3, !4}

!0 = !{i32 1, !"wchar_size", i32 2}
!1 = !{i32 8, !"cf-protection-branch", i32 1}
!2 = !{i32 4, !"function_return_thunk_extern", i32 1}
!3 = !{i32 4, !"indirect_branch_cs_prefix", i32 1}
!4 = !{i32 4, !"SkipRaxSetup", i32 1}
!5 = distinct !{!5, !6, !7}
!6 = !{!"llvm.loop.mustprogress"}
!7 = !{!"llvm.loop.unroll.disable"}
